target datalayout = "e-m:e-p270:32:32-p271:32:32-p272:64:64-i64:64-i128:128-f80:128-n8:16:32:64-S128"
target triple = "x86_64-pc-linux-gnu"

@_ZTIN7Iex_3_46ArgExcE = external constant ptr
@.str.10 = private unnamed_addr constant [25 x i8] c"Unknown pixel data type.\00", align 1

; Function Attrs: inlinehint mustprogress nounwind uwtable
define linkonce_odr hidden noundef zeroext i1 @_ZN7Imf_3_49CharPtrIO9readCharsERPKcPci(ptr noundef nonnull align 8 dereferenceable(8) %0, ptr noundef %1, i32 noundef %2) #7 comdat align 2 {
  %4 = alloca ptr, align 8
  %5 = alloca ptr, align 8
  %6 = alloca i32, align 4
  store ptr %0, ptr %4, align 8, !tbaa !58
  store ptr %1, ptr %5, align 8, !tbaa !10
  store i32 %2, ptr %6, align 4, !tbaa !14
  br label %7

7:                                                ; preds = %11, %3
  %8 = load i32, ptr %6, align 4, !tbaa !14
  %9 = add nsw i32 %8, -1
  store i32 %9, ptr %6, align 4, !tbaa !14
  %10 = icmp ne i32 %8, 0
  br i1 %10, label %11, label %18

11:                                               ; preds = %7
  %12 = load ptr, ptr %4, align 8, !tbaa !58
  %13 = load ptr, ptr %12, align 8, !tbaa !10
  %14 = getelementptr inbounds nuw i8, ptr %13, i32 1
  store ptr %14, ptr %12, align 8, !tbaa !10
  %15 = load i8, ptr %13, align 1, !tbaa !85
  %16 = load ptr, ptr %5, align 8, !tbaa !10
  %17 = getelementptr inbounds nuw i8, ptr %16, i32 1
  store ptr %17, ptr %5, align 8, !tbaa !10
  store i8 %15, ptr %16, align 1, !tbaa !85
  br label %7, !llvm.loop !270

18:                                               ; preds = %7
  ret i1 true
}

; Function Attrs: inlinehint mustprogress nounwind uwtable
define linkonce_odr hidden noundef i32 @_ZN7Imf_3_43Xdr4sizeIfEEiv() #7 comdat {
  ret i32 4
}

; Function Attrs: inlinehint mustprogress nounwind uwtable
define linkonce_odr hidden noundef i32 @_ZN7Imf_3_43Xdr4sizeIN9Imath_3_24halfEEEiv() #7 comdat {
  ret i32 2
}

; Function Attrs: mustprogress nounwind uwtable
define linkonce_odr hidden void @_ZN7Imf_3_43Xdr4skipINS_9CharPtrIOEPKcEEvRT0_i(ptr noundef nonnull align 8 dereferenceable(8) %0, i32 noundef %1) #5 comdat {
  %3 = alloca ptr, align 8
  %4 = alloca i32, align 4
  %5 = alloca [1024 x i8], align 16
  %6 = alloca i32, align 4
  store ptr %0, ptr %3, align 8, !tbaa !58
  store i32 %1, ptr %4, align 4, !tbaa !14
  call void @llvm.lifetime.start.p0(i64 1024, ptr %5) #3
  br label %7

7:                                                ; preds = %15, %2
  %8 = load i32, ptr %4, align 4, !tbaa !14
  %9 = icmp sge i32 %8, 1024
  br i1 %9, label %10, label %20

10:                                               ; preds = %7
  %11 = load ptr, ptr %3, align 8, !tbaa !58
  %12 = getelementptr inbounds [1024 x i8], ptr %5, i64 0, i64 0
  %13 = call noundef zeroext i1 @_ZN7Imf_3_49CharPtrIO9readCharsERPKcPci(ptr noundef nonnull align 8 dereferenceable(8) %11, ptr noundef %12, i32 noundef 1024)
  br i1 %13, label %15, label %14

14:                                               ; preds = %10
  store i32 1, ptr %6, align 4
  br label %29

15:                                               ; preds = %10
  %16 = load i32, ptr %4, align 4, !tbaa !14
  %17 = sext i32 %16 to i64
  %18 = sub i64 %17, 1024
  %19 = trunc i64 %18 to i32
  store i32 %19, ptr %4, align 4, !tbaa !14
  br label %7, !llvm.loop !155

20:                                               ; preds = %7
  %21 = load i32, ptr %4, align 4, !tbaa !14
  %22 = icmp sge i32 %21, 1
  br i1 %22, label %23, label %28

23:                                               ; preds = %20
  %24 = load ptr, ptr %3, align 8, !tbaa !58
  %25 = getelementptr inbounds [1024 x i8], ptr %5, i64 0, i64 0
  %26 = load i32, ptr %4, align 4, !tbaa !14
  %27 = call noundef zeroext i1 @_ZN7Imf_3_49CharPtrIO9readCharsERPKcPci(ptr noundef nonnull align 8 dereferenceable(8) %24, ptr noundef %25, i32 noundef %26)
  br label %28

28:                                               ; preds = %23, %20
  store i32 0, ptr %6, align 4
  br label %29

29:                                               ; preds = %28, %14
  call void @llvm.lifetime.end.p0(i64 1024, ptr %5) #3
  %30 = load i32, ptr %6, align 4
  switch i32 %30, label %32 [
    i32 0, label %31
    i32 1, label %31
  ]

31:                                               ; preds = %29, %29
  ret void

32:                                               ; preds = %29
  unreachable
}

; Function Attrs: inlinehint mustprogress nounwind uwtable
define linkonce_odr hidden noundef i32 @_ZN7Imf_3_43Xdr4sizeIjEEiv() #7 comdat {
  ret i32 4
}

; Function Attrs: mustprogress uwtable
define void @_ZN7Imf_3_411skipChannelERPKcNS_9PixelTypeEm(ptr noundef nonnull align 8 dereferenceable(8) %0, i32 noundef %1, i64 noundef %2) #6 personality ptr @__gxx_personality_v0 {
  %4 = alloca ptr, align 8
  %5 = alloca i32, align 4
  %6 = alloca i64, align 8
  %7 = alloca ptr, align 8
  %8 = alloca i32, align 4
  store ptr %0, ptr %4, align 8, !tbaa !58
  store i32 %1, ptr %5, align 4, !tbaa !12
  store i64 %2, ptr %6, align 8, !tbaa !34
  %9 = load i32, ptr %5, align 4, !tbaa !12
  switch i32 %9, label %31 [
    i32 0, label %10
    i32 1, label %17
    i32 2, label %24
  ]

10:                                               ; preds = %3
  %11 = load ptr, ptr %4, align 8, !tbaa !58
  %12 = call noundef i32 @_ZN7Imf_3_43Xdr4sizeIjEEiv()
  %13 = sext i32 %12 to i64
  %14 = load i64, ptr %6, align 8, !tbaa !34
  %15 = mul i64 %13, %14
  %16 = trunc i64 %15 to i32
  call void @_ZN7Imf_3_43Xdr4skipINS_9CharPtrIOEPKcEEvRT0_i(ptr noundef nonnull align 8 dereferenceable(8) %11, i32 noundef %16)
  br label %38

17:                                               ; preds = %3
  %18 = load ptr, ptr %4, align 8, !tbaa !58
  %19 = call noundef i32 @_ZN7Imf_3_43Xdr4sizeIN9Imath_3_24halfEEEiv()
  %20 = sext i32 %19 to i64
  %21 = load i64, ptr %6, align 8, !tbaa !34
  %22 = mul i64 %20, %21
  %23 = trunc i64 %22 to i32
  call void @_ZN7Imf_3_43Xdr4skipINS_9CharPtrIOEPKcEEvRT0_i(ptr noundef nonnull align 8 dereferenceable(8) %18, i32 noundef %23)
  br label %38

24:                                               ; preds = %3
  %25 = load ptr, ptr %4, align 8, !tbaa !58
  %26 = call noundef i32 @_ZN7Imf_3_43Xdr4sizeIfEEiv()
  %27 = sext i32 %26 to i64
  %28 = load i64, ptr %6, align 8, !tbaa !34
  %29 = mul i64 %27, %28
  %30 = trunc i64 %29 to i32
  call void @_ZN7Imf_3_43Xdr4skipINS_9CharPtrIOEPKcEEvRT0_i(ptr noundef nonnull align 8 dereferenceable(8) %25, i32 noundef %30)
  br label %38

31:                                               ; preds = %3
  %32 = call ptr @__cxa_allocate_exception(i64 72) #3
  invoke void @_ZN7Iex_3_46ArgExcC1EPKc(ptr noundef nonnull align 8 dereferenceable(72) %32, ptr noundef @.str.10)
          to label %33 unwind label %34

33:                                               ; preds = %31
  call void @__cxa_throw(ptr %32, ptr @_ZTIN7Iex_3_46ArgExcE, ptr @_ZN7Iex_3_46ArgExcD1Ev) #19
  unreachable

34:                                               ; preds = %31
  %35 = landingpad { ptr, i32 }
          cleanup
  %36 = extractvalue { ptr, i32 } %35, 0
  store ptr %36, ptr %7, align 8
  %37 = extractvalue { ptr, i32 } %35, 1
  store i32 %37, ptr %8, align 4
  call void @__cxa_free_exception(ptr %32) #3
  br label %39

38:                                               ; preds = %24, %17, %10
  ret void

39:                                               ; preds = %34
  %40 = load ptr, ptr %7, align 8
  %41 = load i32, ptr %8, align 4
  %42 = insertvalue { ptr, i32 } poison, ptr %40, 0
  %43 = insertvalue { ptr, i32 } %42, i32 %41, 1
  resume { ptr, i32 } %43
}