; Function Attrs: mustprogress uwtable
define void @_ZN7Imf_3_411skipChannelERPKcNS_9PixelTypeEm(ptr noundef nonnull align 8 captures(none) dereferenceable(8) %0, i32 noundef %1, i64 noundef %2) local_unnamed_addr #5 personality ptr @__gxx_personality_v0 {
  %4 = alloca [1024 x i8], align 16
  %5 = alloca [1024 x i8], align 16
  %6 = alloca [1024 x i8], align 16
  switch i32 %1, label %58 [
    i32 0, label %7
    i32 1, label %24
    i32 2, label %41
  ]

7:                                                ; preds = %3
  %8 = trunc i64 %2 to i32
  %9 = shl i32 %8, 2
  call void @llvm.lifetime.start.p0(i64 1024, ptr nonnull %6) #20
  %.promoted10.i = load ptr, ptr %0, align 8
  %10 = icmp sgt i32 %9, 1023
  br i1 %10, label %.lr.ph.i.preheader.i, label %._crit_edge.i

.lr.ph.i.preheader.i:                             ; preds = %7, %_ZN7Imf_3_49CharPtrIO9readCharsERPKcPci.exit.i
  %.013.i = phi i32 [ %16, %_ZN7Imf_3_49CharPtrIO9readCharsERPKcPci.exit.i ], [ %9, %7 ]
  %.promoted1112.i = phi ptr [ %13, %_ZN7Imf_3_49CharPtrIO9readCharsERPKcPci.exit.i ], [ %.promoted10.i, %7 ]
  br label %.lr.ph.i.i

.lr.ph.i.i:                                       ; preds = %.lr.ph.i.i, %.lr.ph.i.preheader.i
  %11 = phi ptr [ %13, %.lr.ph.i.i ], [ %.promoted1112.i, %.lr.ph.i.preheader.i ]
  %.05.i.i = phi i32 [ %12, %.lr.ph.i.i ], [ 1024, %.lr.ph.i.preheader.i ]
  %.024.i.i = phi ptr [ %15, %.lr.ph.i.i ], [ %6, %.lr.ph.i.preheader.i ]
  %12 = add nsw i32 %.05.i.i, -1
  %13 = getelementptr inbounds nuw i8, ptr %11, i64 1
  store ptr %13, ptr %0, align 8, !tbaa !45
  %14 = load i8, ptr %11, align 1, !tbaa !47
  %15 = getelementptr inbounds nuw i8, ptr %.024.i.i, i64 1
  store i8 %14, ptr %.024.i.i, align 1, !tbaa !47
  %.not.i.i = icmp eq i32 %12, 0
  br i1 %.not.i.i, label %_ZN7Imf_3_49CharPtrIO9readCharsERPKcPci.exit.i, label %.lr.ph.i.i, !llvm.loop !48

_ZN7Imf_3_49CharPtrIO9readCharsERPKcPci.exit.i:   ; preds = %.lr.ph.i.i
  %16 = add nsw i32 %.013.i, -1024
  %17 = icmp sgt i32 %.013.i, 2047
  br i1 %17, label %.lr.ph.i.preheader.i, label %._crit_edge.i, !llvm.loop !80

._crit_edge.i:                                    ; preds = %_ZN7Imf_3_49CharPtrIO9readCharsERPKcPci.exit.i, %7
  %.promoted.i = phi ptr [ %.promoted10.i, %7 ], [ %13, %_ZN7Imf_3_49CharPtrIO9readCharsERPKcPci.exit.i ]
  %.0.lcssa.i = phi i32 [ %9, %7 ], [ %16, %_ZN7Imf_3_49CharPtrIO9readCharsERPKcPci.exit.i ]
  %18 = icmp sgt i32 %.0.lcssa.i, 0
  br i1 %18, label %.lr.ph.i5.i, label %_ZN7Imf_3_43Xdr4skipINS_9CharPtrIOEPKcEEvRT0_i.exit

.lr.ph.i5.i:                                      ; preds = %._crit_edge.i, %.lr.ph.i5.i
  %19 = phi ptr [ %21, %.lr.ph.i5.i ], [ %.promoted.i, %._crit_edge.i ]
  %.05.i6.i = phi i32 [ %20, %.lr.ph.i5.i ], [ %.0.lcssa.i, %._crit_edge.i ]
  %.024.i7.i = phi ptr [ %23, %.lr.ph.i5.i ], [ %6, %._crit_edge.i ]
  %20 = add nsw i32 %.05.i6.i, -1
  %21 = getelementptr inbounds nuw i8, ptr %19, i64 1
  store ptr %21, ptr %0, align 8, !tbaa !45
  %22 = load i8, ptr %19, align 1, !tbaa !47
  %23 = getelementptr inbounds nuw i8, ptr %.024.i7.i, i64 1
  store i8 %22, ptr %.024.i7.i, align 1, !tbaa !47
  %.not.i8.i = icmp eq i32 %20, 0
  br i1 %.not.i8.i, label %_ZN7Imf_3_43Xdr4skipINS_9CharPtrIOEPKcEEvRT0_i.exit, label %.lr.ph.i5.i, !llvm.loop !48

_ZN7Imf_3_43Xdr4skipINS_9CharPtrIOEPKcEEvRT0_i.exit: ; preds = %.lr.ph.i5.i, %._crit_edge.i
  call void @llvm.lifetime.end.p0(i64 1024, ptr nonnull %6) #20
  br label %63

24:                                               ; preds = %3
  %25 = trunc i64 %2 to i32
  %26 = shl i32 %25, 1
  call void @llvm.lifetime.start.p0(i64 1024, ptr nonnull %5) #20
  %.promoted10.i8 = load ptr, ptr %0, align 8
  %27 = icmp sgt i32 %26, 1023
  br i1 %27, label %.lr.ph.i.preheader.i16, label %._crit_edge.i9

.lr.ph.i.preheader.i16:                           ; preds = %24, %_ZN7Imf_3_49CharPtrIO9readCharsERPKcPci.exit.i23
  %.013.i17 = phi i32 [ %33, %_ZN7Imf_3_49CharPtrIO9readCharsERPKcPci.exit.i23 ], [ %26, %24 ]
  %.promoted1112.i18 = phi ptr [ %30, %_ZN7Imf_3_49CharPtrIO9readCharsERPKcPci.exit.i23 ], [ %.promoted10.i8, %24 ]
  br label %.lr.ph.i.i19

.lr.ph.i.i19:                                     ; preds = %.lr.ph.i.i19, %.lr.ph.i.preheader.i16
  %28 = phi ptr [ %30, %.lr.ph.i.i19 ], [ %.promoted1112.i18, %.lr.ph.i.preheader.i16 ]
  %.05.i.i20 = phi i32 [ %29, %.lr.ph.i.i19 ], [ 1024, %.lr.ph.i.preheader.i16 ]
  %.024.i.i21 = phi ptr [ %32, %.lr.ph.i.i19 ], [ %5, %.lr.ph.i.preheader.i16 ]
  %29 = add nsw i32 %.05.i.i20, -1
  %30 = getelementptr inbounds nuw i8, ptr %28, i64 1
  store ptr %30, ptr %0, align 8, !tbaa !45
  %31 = load i8, ptr %28, align 1, !tbaa !47
  %32 = getelementptr inbounds nuw i8, ptr %.024.i.i21, i64 1
  store i8 %31, ptr %.024.i.i21, align 1, !tbaa !47
  %.not.i.i22 = icmp eq i32 %29, 0
  br i1 %.not.i.i22, label %_ZN7Imf_3_49CharPtrIO9readCharsERPKcPci.exit.i23, label %.lr.ph.i.i19, !llvm.loop !48

_ZN7Imf_3_49CharPtrIO9readCharsERPKcPci.exit.i23: ; preds = %.lr.ph.i.i19
  %33 = add nsw i32 %.013.i17, -1024
  %34 = icmp sgt i32 %.013.i17, 2047
  br i1 %34, label %.lr.ph.i.preheader.i16, label %._crit_edge.i9, !llvm.loop !80

._crit_edge.i9:                                   ; preds = %_ZN7Imf_3_49CharPtrIO9readCharsERPKcPci.exit.i23, %24
  %.promoted.i10 = phi ptr [ %.promoted10.i8, %24 ], [ %30, %_ZN7Imf_3_49CharPtrIO9readCharsERPKcPci.exit.i23 ]
  %.0.lcssa.i11 = phi i32 [ %26, %24 ], [ %33, %_ZN7Imf_3_49CharPtrIO9readCharsERPKcPci.exit.i23 ]
  %35 = icmp sgt i32 %.0.lcssa.i11, 0
  br i1 %35, label %.lr.ph.i5.i12, label %_ZN7Imf_3_43Xdr4skipINS_9CharPtrIOEPKcEEvRT0_i.exit24

.lr.ph.i5.i12:                                    ; preds = %._crit_edge.i9, %.lr.ph.i5.i12
  %36 = phi ptr [ %38, %.lr.ph.i5.i12 ], [ %.promoted.i10, %._crit_edge.i9 ]
  %.05.i6.i13 = phi i32 [ %37, %.lr.ph.i5.i12 ], [ %.0.lcssa.i11, %._crit_edge.i9 ]
  %.024.i7.i14 = phi ptr [ %40, %.lr.ph.i5.i12 ], [ %5, %._crit_edge.i9 ]
  %37 = add nsw i32 %.05.i6.i13, -1
  %38 = getelementptr inbounds nuw i8, ptr %36, i64 1
  store ptr %38, ptr %0, align 8, !tbaa !45
  %39 = load i8, ptr %36, align 1, !tbaa !47
  %40 = getelementptr inbounds nuw i8, ptr %.024.i7.i14, i64 1
  store i8 %39, ptr %.024.i7.i14, align 1, !tbaa !47
  %.not.i8.i15 = icmp eq i32 %37, 0
  br i1 %.not.i8.i15, label %_ZN7Imf_3_43Xdr4skipINS_9CharPtrIOEPKcEEvRT0_i.exit24, label %.lr.ph.i5.i12, !llvm.loop !48

_ZN7Imf_3_43Xdr4skipINS_9CharPtrIOEPKcEEvRT0_i.exit24: ; preds = %.lr.ph.i5.i12, %._crit_edge.i9
  call void @llvm.lifetime.end.p0(i64 1024, ptr nonnull %5) #20
  br label %63

41:                                               ; preds = %3
  %42 = trunc i64 %2 to i32
  %43 = shl i32 %42, 2
  call void @llvm.lifetime.start.p0(i64 1024, ptr nonnull %4) #20
  %.promoted10.i25 = load ptr, ptr %0, align 8
  %44 = icmp sgt i32 %43, 1023
  br i1 %44, label %.lr.ph.i.preheader.i33, label %._crit_edge.i26

.lr.ph.i.preheader.i33:                           ; preds = %41, %_ZN7Imf_3_49CharPtrIO9readCharsERPKcPci.exit.i40
  %.013.i34 = phi i32 [ %50, %_ZN7Imf_3_49CharPtrIO9readCharsERPKcPci.exit.i40 ], [ %43, %41 ]
  %.promoted1112.i35 = phi ptr [ %47, %_ZN7Imf_3_49CharPtrIO9readCharsERPKcPci.exit.i40 ], [ %.promoted10.i25, %41 ]
  br label %.lr.ph.i.i36

.lr.ph.i.i36:                                     ; preds = %.lr.ph.i.i36, %.lr.ph.i.preheader.i33
  %45 = phi ptr [ %47, %.lr.ph.i.i36 ], [ %.promoted1112.i35, %.lr.ph.i.preheader.i33 ]
  %.05.i.i37 = phi i32 [ %46, %.lr.ph.i.i36 ], [ 1024, %.lr.ph.i.preheader.i33 ]
  %.024.i.i38 = phi ptr [ %49, %.lr.ph.i.i36 ], [ %4, %.lr.ph.i.preheader.i33 ]
  %46 = add nsw i32 %.05.i.i37, -1
  %47 = getelementptr inbounds nuw i8, ptr %45, i64 1
  store ptr %47, ptr %0, align 8, !tbaa !45
  %48 = load i8, ptr %45, align 1, !tbaa !47
  %49 = getelementptr inbounds nuw i8, ptr %.024.i.i38, i64 1
  store i8 %48, ptr %.024.i.i38, align 1, !tbaa !47
  %.not.i.i39 = icmp eq i32 %46, 0
  br i1 %.not.i.i39, label %_ZN7Imf_3_49CharPtrIO9readCharsERPKcPci.exit.i40, label %.lr.ph.i.i36, !llvm.loop !48

_ZN7Imf_3_49CharPtrIO9readCharsERPKcPci.exit.i40: ; preds = %.lr.ph.i.i36
  %50 = add nsw i32 %.013.i34, -1024
  %51 = icmp sgt i32 %.013.i34, 2047
  br i1 %51, label %.lr.ph.i.preheader.i33, label %._crit_edge.i26, !llvm.loop !80

._crit_edge.i26:                                  ; preds = %_ZN7Imf_3_49CharPtrIO9readCharsERPKcPci.exit.i40, %41
  %.promoted.i27 = phi ptr [ %.promoted10.i25, %41 ], [ %47, %_ZN7Imf_3_49CharPtrIO9readCharsERPKcPci.exit.i40 ]
  %.0.lcssa.i28 = phi i32 [ %43, %41 ], [ %50, %_ZN7Imf_3_49CharPtrIO9readCharsERPKcPci.exit.i40 ]
  %52 = icmp sgt i32 %.0.lcssa.i28, 0
  br i1 %52, label %.lr.ph.i5.i29, label %_ZN7Imf_3_43Xdr4skipINS_9CharPtrIOEPKcEEvRT0_i.exit41

.lr.ph.i5.i29:                                    ; preds = %._crit_edge.i26, %.lr.ph.i5.i29
  %53 = phi ptr [ %55, %.lr.ph.i5.i29 ], [ %.promoted.i27, %._crit_edge.i26 ]
  %.05.i6.i30 = phi i32 [ %54, %.lr.ph.i5.i29 ], [ %.0.lcssa.i28, %._crit_edge.i26 ]
  %.024.i7.i31 = phi ptr [ %57, %.lr.ph.i5.i29 ], [ %4, %._crit_edge.i26 ]
  %54 = add nsw i32 %.05.i6.i30, -1
  %55 = getelementptr inbounds nuw i8, ptr %53, i64 1
  store ptr %55, ptr %0, align 8, !tbaa !45
  %56 = load i8, ptr %53, align 1, !tbaa !47
  %57 = getelementptr inbounds nuw i8, ptr %.024.i7.i31, i64 1
  store i8 %56, ptr %.024.i7.i31, align 1, !tbaa !47
  %.not.i8.i32 = icmp eq i32 %54, 0
  br i1 %.not.i8.i32, label %_ZN7Imf_3_43Xdr4skipINS_9CharPtrIOEPKcEEvRT0_i.exit41, label %.lr.ph.i5.i29, !llvm.loop !48

_ZN7Imf_3_43Xdr4skipINS_9CharPtrIOEPKcEEvRT0_i.exit41: ; preds = %.lr.ph.i5.i29, %._crit_edge.i26
  call void @llvm.lifetime.end.p0(i64 1024, ptr nonnull %4) #20
  br label %63

58:                                               ; preds = %3
  %59 = tail call ptr @__cxa_allocate_exception(i64 72) #20
  invoke void @_ZN7Iex_3_46ArgExcC1EPKc(ptr noundef nonnull align 8 dereferenceable(72) %59, ptr noundef nonnull @.str.10)
          to label %60 unwind label %61

60:                                               ; preds = %58
  tail call void @__cxa_throw(ptr nonnull %59, ptr nonnull @_ZTIN7Iex_3_46ArgExcE, ptr nonnull @_ZN7Iex_3_46ArgExcD1Ev) #21
  unreachable

61:                                               ; preds = %58
  %62 = landingpad { ptr, i32 }
          cleanup
  tail call void @__cxa_free_exception(ptr nonnull %59) #20
  resume { ptr, i32 } %62

63:                                               ; preds = %_ZN7Imf_3_43Xdr4skipINS_9CharPtrIOEPKcEEvRT0_i.exit41, %_ZN7Imf_3_43Xdr4skipINS_9CharPtrIOEPKcEEvRT0_i.exit24, %_ZN7Imf_3_43Xdr4skipINS_9CharPtrIOEPKcEEvRT0_i.exit
  ret void
}